target datalayout = "e-m:e-p270:32:32-p271:32:32-p272:64:64-i64:64-i128:128-f80:128-n8:16:32:64-S128"
target triple = "x86_64-pc-linux-gnu"

%struct.FFIOContext = type { %struct.AVIOContext, ptr, i32, i32, i64, i64, i64, i64, i32, i32, i32, i64 }
%struct.AVIOContext = type { ptr, ptr, i32, ptr, ptr, ptr, ptr, ptr, ptr, i64, i32, i32, i32, i32, i32, i64, ptr, ptr, ptr, ptr, i32, i32, ptr, ptr, ptr, i32, ptr, i64, i64 }
%struct.Mp4Descr = type { i32, i32, ptr, %struct.SLConfigDescr }
%struct.SLConfigDescr = type { i32, i32, i32, i32, i32, i32, i32, i32, i32, i32, i32, i32, i32, i32 }
%struct.MP4DescrParseContext = type { ptr, %struct.FFIOContext, ptr, ptr, i32, i32, i32, i32 }

@.str.19 = private unnamed_addr constant [30 x i8] c"Predefined SLConfigDescriptor\00", align 1

; Function Attrs: nounwind uwtable
define internal i32 @parse_MP4SLDescrTag(ptr noundef %0, i64 noundef %1, i32 noundef %2) #0 {
  %4 = alloca i32, align 4
  %5 = alloca ptr, align 8
  %6 = alloca i64, align 8
  %7 = alloca i32, align 4
  %8 = alloca ptr, align 8
  %9 = alloca ptr, align 8
  %10 = alloca i32, align 4
  %11 = alloca i32, align 4
  %12 = alloca i32, align 4
  %13 = alloca i32, align 4
  store ptr %0, ptr %5, align 8, !tbaa !218
  store i64 %1, ptr %6, align 8, !tbaa !90
  store i32 %2, ptr %7, align 4, !tbaa !11
  call void @llvm.lifetime.start.p0(i64 8, ptr %8) #12
  %14 = load ptr, ptr %5, align 8, !tbaa !218
  %15 = getelementptr inbounds nuw %struct.MP4DescrParseContext, ptr %14, i32 0, i32 3
  %16 = load ptr, ptr %15, align 8, !tbaa !223
  store ptr %16, ptr %8, align 8, !tbaa !18
  call void @llvm.lifetime.start.p0(i64 8, ptr %9) #12
  %17 = load ptr, ptr %5, align 8, !tbaa !218
  %18 = getelementptr inbounds nuw %struct.MP4DescrParseContext, ptr %17, i32 0, i32 1
  %19 = getelementptr inbounds nuw %struct.FFIOContext, ptr %18, i32 0, i32 0
  store ptr %19, ptr %9, align 8, !tbaa !183
  call void @llvm.lifetime.start.p0(i64 4, ptr %10) #12
  %20 = load ptr, ptr %8, align 8, !tbaa !18
  %21 = icmp ne ptr %20, null
  br i1 %21, label %23, label %22

22:                                               ; preds = %3
  store i32 -1094995529, ptr %4, align 4
  store i32 1, ptr %11, align 4
  br label %186

23:                                               ; preds = %3
  %24 = load ptr, ptr %9, align 8, !tbaa !183
  %25 = call i32 @avio_r8(ptr noundef %24)
  store i32 %25, ptr %10, align 4, !tbaa !11
  %26 = load i32, ptr %10, align 4, !tbaa !11
  %27 = icmp ne i32 %26, 0
  br i1 %27, label %173, label %28

28:                                               ; preds = %23
  call void @llvm.lifetime.start.p0(i64 4, ptr %12) #12
  call void @llvm.lifetime.start.p0(i64 4, ptr %13) #12
  %29 = load ptr, ptr %9, align 8, !tbaa !183
  %30 = call i32 @avio_r8(ptr noundef %29)
  store i32 %30, ptr %13, align 4, !tbaa !11
  %31 = load i32, ptr %13, align 4, !tbaa !11
  %32 = and i32 %31, 128
  %33 = icmp ne i32 %32, 0
  %34 = xor i1 %33, true
  %35 = xor i1 %34, true
  %36 = zext i1 %35 to i32
  %37 = load ptr, ptr %8, align 8, !tbaa !18
  %38 = getelementptr inbounds nuw %struct.Mp4Descr, ptr %37, i32 0, i32 3
  %39 = getelementptr inbounds nuw %struct.SLConfigDescr, ptr %38, i32 0, i32 0
  store i32 %36, ptr %39, align 8, !tbaa !226
  %40 = load i32, ptr %13, align 4, !tbaa !11
  %41 = and i32 %40, 64
  %42 = icmp ne i32 %41, 0
  %43 = xor i1 %42, true
  %44 = xor i1 %43, true
  %45 = zext i1 %44 to i32
  %46 = load ptr, ptr %8, align 8, !tbaa !18
  %47 = getelementptr inbounds nuw %struct.Mp4Descr, ptr %46, i32 0, i32 3
  %48 = getelementptr inbounds nuw %struct.SLConfigDescr, ptr %47, i32 0, i32 1
  store i32 %45, ptr %48, align 4, !tbaa !227
  %49 = load i32, ptr %13, align 4, !tbaa !11
  %50 = and i32 %49, 32
  %51 = icmp ne i32 %50, 0
  %52 = xor i1 %51, true
  %53 = xor i1 %52, true
  %54 = zext i1 %53 to i32
  %55 = load ptr, ptr %8, align 8, !tbaa !18
  %56 = getelementptr inbounds nuw %struct.Mp4Descr, ptr %55, i32 0, i32 3
  %57 = getelementptr inbounds nuw %struct.SLConfigDescr, ptr %56, i32 0, i32 2
  store i32 %54, ptr %57, align 8, !tbaa !228
  %58 = load i32, ptr %13, align 4, !tbaa !11
  %59 = and i32 %58, 8
  %60 = icmp ne i32 %59, 0
  %61 = xor i1 %60, true
  %62 = xor i1 %61, true
  %63 = zext i1 %62 to i32
  %64 = load ptr, ptr %8, align 8, !tbaa !18
  %65 = getelementptr inbounds nuw %struct.Mp4Descr, ptr %64, i32 0, i32 3
  %66 = getelementptr inbounds nuw %struct.SLConfigDescr, ptr %65, i32 0, i32 3
  store i32 %63, ptr %66, align 4, !tbaa !229
  %67 = load i32, ptr %13, align 4, !tbaa !11
  %68 = and i32 %67, 4
  %69 = icmp ne i32 %68, 0
  %70 = xor i1 %69, true
  %71 = xor i1 %70, true
  %72 = zext i1 %71 to i32
  %73 = load ptr, ptr %8, align 8, !tbaa !18
  %74 = getelementptr inbounds nuw %struct.Mp4Descr, ptr %73, i32 0, i32 3
  %75 = getelementptr inbounds nuw %struct.SLConfigDescr, ptr %74, i32 0, i32 4
  store i32 %72, ptr %75, align 8, !tbaa !230
  %76 = load i32, ptr %13, align 4, !tbaa !11
  %77 = and i32 %76, 2
  %78 = icmp ne i32 %77, 0
  %79 = xor i1 %78, true
  %80 = xor i1 %79, true
  %81 = zext i1 %80 to i32
  %82 = load ptr, ptr %8, align 8, !tbaa !18
  %83 = getelementptr inbounds nuw %struct.Mp4Descr, ptr %82, i32 0, i32 3
  %84 = getelementptr inbounds nuw %struct.SLConfigDescr, ptr %83, i32 0, i32 5
  store i32 %81, ptr %84, align 4, !tbaa !231
  %85 = load ptr, ptr %9, align 8, !tbaa !183
  %86 = call i32 @avio_rb32(ptr noundef %85)
  %87 = load ptr, ptr %8, align 8, !tbaa !18
  %88 = getelementptr inbounds nuw %struct.Mp4Descr, ptr %87, i32 0, i32 3
  %89 = getelementptr inbounds nuw %struct.SLConfigDescr, ptr %88, i32 0, i32 6
  store i32 %86, ptr %89, align 8, !tbaa !232
  %90 = load ptr, ptr %9, align 8, !tbaa !183
  %91 = call i32 @avio_rb32(ptr noundef %90)
  br label %92

92:                                               ; preds = %28
  %93 = load ptr, ptr %9, align 8, !tbaa !183
  %94 = call i32 @avio_r8(ptr noundef %93)
  %95 = load ptr, ptr %8, align 8, !tbaa !18
  %96 = getelementptr inbounds nuw %struct.Mp4Descr, ptr %95, i32 0, i32 3
  %97 = getelementptr inbounds nuw %struct.SLConfigDescr, ptr %96, i32 0, i32 7
  store i32 %94, ptr %97, align 4, !tbaa !233
  %98 = load ptr, ptr %8, align 8, !tbaa !18
  %99 = getelementptr inbounds nuw %struct.Mp4Descr, ptr %98, i32 0, i32 3
  %100 = getelementptr inbounds nuw %struct.SLConfigDescr, ptr %99, i32 0, i32 7
  %101 = load i32, ptr %100, align 4, !tbaa !233
  %102 = icmp sgt i32 %101, 63
  br i1 %102, label %103, label %107

103:                                              ; preds = %92
  %104 = load ptr, ptr %8, align 8, !tbaa !18
  %105 = getelementptr inbounds nuw %struct.Mp4Descr, ptr %104, i32 0, i32 3
  %106 = getelementptr inbounds nuw %struct.SLConfigDescr, ptr %105, i32 0, i32 7
  store i32 63, ptr %106, align 4, !tbaa !233
  store i32 -1094995529, ptr %4, align 4
  store i32 1, ptr %11, align 4
  br label %170

107:                                              ; preds = %92
  br label %108

108:                                              ; preds = %107
  br label %109

109:                                              ; preds = %108
  br label %110

110:                                              ; preds = %109
  %111 = load ptr, ptr %9, align 8, !tbaa !183
  %112 = call i32 @avio_r8(ptr noundef %111)
  %113 = load ptr, ptr %8, align 8, !tbaa !18
  %114 = getelementptr inbounds nuw %struct.Mp4Descr, ptr %113, i32 0, i32 3
  %115 = getelementptr inbounds nuw %struct.SLConfigDescr, ptr %114, i32 0, i32 8
  store i32 %112, ptr %115, align 8, !tbaa !234
  %116 = load ptr, ptr %8, align 8, !tbaa !18
  %117 = getelementptr inbounds nuw %struct.Mp4Descr, ptr %116, i32 0, i32 3
  %118 = getelementptr inbounds nuw %struct.SLConfigDescr, ptr %117, i32 0, i32 8
  %119 = load i32, ptr %118, align 8, !tbaa !234
  %120 = icmp sgt i32 %119, 63
  br i1 %120, label %121, label %125

121:                                              ; preds = %110
  %122 = load ptr, ptr %8, align 8, !tbaa !18
  %123 = getelementptr inbounds nuw %struct.Mp4Descr, ptr %122, i32 0, i32 3
  %124 = getelementptr inbounds nuw %struct.SLConfigDescr, ptr %123, i32 0, i32 8
  store i32 63, ptr %124, align 8, !tbaa !234
  store i32 -1094995529, ptr %4, align 4
  store i32 1, ptr %11, align 4
  br label %170

125:                                              ; preds = %110
  br label %126

126:                                              ; preds = %125
  br label %127

127:                                              ; preds = %126
  br label %128

128:                                              ; preds = %127
  %129 = load ptr, ptr %9, align 8, !tbaa !183
  %130 = call i32 @avio_r8(ptr noundef %129)
  %131 = load ptr, ptr %8, align 8, !tbaa !18
  %132 = getelementptr inbounds nuw %struct.Mp4Descr, ptr %131, i32 0, i32 3
  %133 = getelementptr inbounds nuw %struct.SLConfigDescr, ptr %132, i32 0, i32 9
  store i32 %130, ptr %133, align 4, !tbaa !235
  %134 = load ptr, ptr %8, align 8, !tbaa !18
  %135 = getelementptr inbounds nuw %struct.Mp4Descr, ptr %134, i32 0, i32 3
  %136 = getelementptr inbounds nuw %struct.SLConfigDescr, ptr %135, i32 0, i32 9
  %137 = load i32, ptr %136, align 4, !tbaa !235
  %138 = icmp sgt i32 %137, 31
  br i1 %138, label %139, label %143

139:                                              ; preds = %128
  %140 = load ptr, ptr %8, align 8, !tbaa !18
  %141 = getelementptr inbounds nuw %struct.Mp4Descr, ptr %140, i32 0, i32 3
  %142 = getelementptr inbounds nuw %struct.SLConfigDescr, ptr %141, i32 0, i32 9
  store i32 31, ptr %142, align 4, !tbaa !235
  store i32 -1094995529, ptr %4, align 4
  store i32 1, ptr %11, align 4
  br label %170

143:                                              ; preds = %128
  br label %144

144:                                              ; preds = %143
  br label %145

145:                                              ; preds = %144
  %146 = load ptr, ptr %9, align 8, !tbaa !183
  %147 = call i32 @avio_r8(ptr noundef %146)
  %148 = load ptr, ptr %8, align 8, !tbaa !18
  %149 = getelementptr inbounds nuw %struct.Mp4Descr, ptr %148, i32 0, i32 3
  %150 = getelementptr inbounds nuw %struct.SLConfigDescr, ptr %149, i32 0, i32 10
  store i32 %147, ptr %150, align 8, !tbaa !236
  %151 = load ptr, ptr %9, align 8, !tbaa !183
  %152 = call i32 @avio_rb16(ptr noundef %151)
  store i32 %152, ptr %12, align 4, !tbaa !11
  %153 = load i32, ptr %12, align 4, !tbaa !11
  %154 = ashr i32 %153, 12
  %155 = load ptr, ptr %8, align 8, !tbaa !18
  %156 = getelementptr inbounds nuw %struct.Mp4Descr, ptr %155, i32 0, i32 3
  %157 = getelementptr inbounds nuw %struct.SLConfigDescr, ptr %156, i32 0, i32 11
  store i32 %154, ptr %157, align 4, !tbaa !237
  %158 = load i32, ptr %12, align 4, !tbaa !11
  %159 = ashr i32 %158, 7
  %160 = and i32 %159, 31
  %161 = load ptr, ptr %8, align 8, !tbaa !18
  %162 = getelementptr inbounds nuw %struct.Mp4Descr, ptr %161, i32 0, i32 3
  %163 = getelementptr inbounds nuw %struct.SLConfigDescr, ptr %162, i32 0, i32 12
  store i32 %160, ptr %163, align 8, !tbaa !238
  %164 = load i32, ptr %12, align 4, !tbaa !11
  %165 = ashr i32 %164, 2
  %166 = and i32 %165, 31
  %167 = load ptr, ptr %8, align 8, !tbaa !18
  %168 = getelementptr inbounds nuw %struct.Mp4Descr, ptr %167, i32 0, i32 3
  %169 = getelementptr inbounds nuw %struct.SLConfigDescr, ptr %168, i32 0, i32 13
  store i32 %166, ptr %169, align 4, !tbaa !239
  store i32 0, ptr %11, align 4
  br label %170

170:                                              ; preds = %145, %139, %121, %103
  call void @llvm.lifetime.end.p0(i64 4, ptr %13) #12
  call void @llvm.lifetime.end.p0(i64 4, ptr %12) #12
  %171 = load i32, ptr %11, align 4
  switch i32 %171, label %186 [
    i32 0, label %172
  ]

172:                                              ; preds = %170
  br label %185

173:                                              ; preds = %23
  %174 = load ptr, ptr %5, align 8, !tbaa !218
  %175 = getelementptr inbounds nuw %struct.MP4DescrParseContext, ptr %174, i32 0, i32 7
  %176 = load i32, ptr %175, align 4, !tbaa !240
  %177 = icmp ne i32 %176, 0
  br i1 %177, label %184, label %178

178:                                              ; preds = %173
  %179 = load ptr, ptr %5, align 8, !tbaa !218
  %180 = getelementptr inbounds nuw %struct.MP4DescrParseContext, ptr %179, i32 0, i32 0
  %181 = load ptr, ptr %180, align 8, !tbaa !220
  call void (ptr, ptr, ...) @avpriv_report_missing_feature(ptr noundef %181, ptr noundef @.str.19)
  %182 = load ptr, ptr %5, align 8, !tbaa !218
  %183 = getelementptr inbounds nuw %struct.MP4DescrParseContext, ptr %182, i32 0, i32 7
  store i32 1, ptr %183, align 4, !tbaa !240
  br label %184

184:                                              ; preds = %178, %173
  br label %185

185:                                              ; preds = %184, %172
  store i32 0, ptr %4, align 4
  store i32 1, ptr %11, align 4
  br label %186

186:                                              ; preds = %185, %170, %22
  call void @llvm.lifetime.end.p0(i64 4, ptr %10) #12
  call void @llvm.lifetime.end.p0(i64 8, ptr %9) #12
  call void @llvm.lifetime.end.p0(i64 8, ptr %8) #12
  %187 = load i32, ptr %4, align 4
  ret i32 %187
}