; Function Attrs: nounwind uwtable
define internal fastcc range(i32 -1094995529, 1) i32 @parse_MP4SLDescrTag(ptr noundef nonnull %0) unnamed_addr #0 {
  %2 = getelementptr inbounds nuw i8, ptr %0, i64 296
  %3 = load ptr, ptr %2, align 8, !tbaa !101
  %4 = getelementptr inbounds nuw i8, ptr %0, i64 8
  %.not = icmp eq ptr %3, null
  br i1 %.not, label %.critedge, label %5

5:                                                ; preds = %1
  %6 = tail call i32 @avio_r8(ptr noundef nonnull %4) #12
  %.not48 = icmp eq i32 %6, 0
  br i1 %.not48, label %7, label %50

7:                                                ; preds = %5
  %8 = tail call i32 @avio_r8(ptr noundef nonnull %4) #12
  %9 = lshr i32 %8, 7
  %.lobit = and i32 %9, 1
  %10 = getelementptr inbounds nuw i8, ptr %3, i64 16
  store i32 %.lobit, ptr %10, align 8, !tbaa !211
  %11 = lshr i32 %8, 6
  %.lobit49 = and i32 %11, 1
  %12 = getelementptr inbounds nuw i8, ptr %3, i64 20
  store i32 %.lobit49, ptr %12, align 4, !tbaa !212
  %13 = lshr i32 %8, 5
  %.lobit50 = and i32 %13, 1
  %14 = getelementptr inbounds nuw i8, ptr %3, i64 24
  store i32 %.lobit50, ptr %14, align 8, !tbaa !213
  %15 = lshr i32 %8, 3
  %.lobit51 = and i32 %15, 1
  %16 = getelementptr inbounds nuw i8, ptr %3, i64 28
  store i32 %.lobit51, ptr %16, align 4, !tbaa !214
  %17 = lshr i32 %8, 2
  %.lobit52 = and i32 %17, 1
  %18 = getelementptr inbounds nuw i8, ptr %3, i64 32
  store i32 %.lobit52, ptr %18, align 8, !tbaa !215
  %19 = lshr i32 %8, 1
  %.lobit53 = and i32 %19, 1
  %20 = getelementptr inbounds nuw i8, ptr %3, i64 36
  store i32 %.lobit53, ptr %20, align 4, !tbaa !216
  %21 = tail call i32 @avio_rb32(ptr noundef nonnull %4) #12
  %22 = getelementptr inbounds nuw i8, ptr %3, i64 40
  store i32 %21, ptr %22, align 8, !tbaa !217
  %23 = tail call i32 @avio_rb32(ptr noundef nonnull %4) #12
  %24 = tail call i32 @avio_r8(ptr noundef nonnull %4) #12
  %25 = getelementptr inbounds nuw i8, ptr %3, i64 44
  store i32 %24, ptr %25, align 4, !tbaa !218
  %26 = icmp sgt i32 %24, 63
  br i1 %26, label %27, label %28

27:                                               ; preds = %7
  store i32 63, ptr %25, align 4, !tbaa !218
  br label %.critedge

28:                                               ; preds = %7
  %29 = tail call i32 @avio_r8(ptr noundef nonnull %4) #12
  %30 = getelementptr inbounds nuw i8, ptr %3, i64 48
  store i32 %29, ptr %30, align 8, !tbaa !219
  %31 = icmp sgt i32 %29, 63
  br i1 %31, label %32, label %33

32:                                               ; preds = %28
  store i32 63, ptr %30, align 8, !tbaa !219
  br label %.critedge

33:                                               ; preds = %28
  %34 = tail call i32 @avio_r8(ptr noundef nonnull %4) #12
  %35 = getelementptr inbounds nuw i8, ptr %3, i64 52
  store i32 %34, ptr %35, align 4, !tbaa !220
  %36 = icmp sgt i32 %34, 31
  br i1 %36, label %37, label %38

37:                                               ; preds = %33
  store i32 31, ptr %35, align 4, !tbaa !220
  br label %.critedge

38:                                               ; preds = %33
  %39 = tail call i32 @avio_r8(ptr noundef nonnull %4) #12
  %40 = getelementptr inbounds nuw i8, ptr %3, i64 56
  store i32 %39, ptr %40, align 8, !tbaa !221
  %41 = tail call i32 @avio_rb16(ptr noundef nonnull %4) #12
  %42 = ashr i32 %41, 12
  %43 = getelementptr inbounds nuw i8, ptr %3, i64 60
  store i32 %42, ptr %43, align 4, !tbaa !222
  %44 = lshr i32 %41, 7
  %45 = and i32 %44, 31
  %46 = getelementptr inbounds nuw i8, ptr %3, i64 64
  store i32 %45, ptr %46, align 8, !tbaa !223
  %47 = lshr i32 %41, 2
  %48 = and i32 %47, 31
  %49 = getelementptr inbounds nuw i8, ptr %3, i64 68
  store i32 %48, ptr %49, align 4, !tbaa !224
  br label %.critedge

50:                                               ; preds = %5
  %51 = getelementptr inbounds nuw i8, ptr %0, i64 316
  %52 = load i32, ptr %51, align 4, !tbaa !225
  %.not54 = icmp eq i32 %52, 0
  br i1 %.not54, label %53, label %.critedge

53:                                               ; preds = %50
  %54 = load ptr, ptr %0, align 8, !tbaa !93
  tail call void (ptr, ptr, ...) @avpriv_report_missing_feature(ptr noundef %54, ptr noundef nonnull @.str.19) #12
  store i32 1, ptr %51, align 4, !tbaa !225
  br label %.critedge

.critedge:                                        ; preds = %27, %32, %37, %53, %50, %38, %1
  %.0 = phi i32 [ -1094995529, %1 ], [ 0, %38 ], [ 0, %50 ], [ 0, %53 ], [ -1094995529, %37 ], [ -1094995529, %32 ], [ -1094995529, %27 ]
  ret i32 %.0
}